target datalayout = "e-m:e-p270:32:32-p271:32:32-p272:64:64-i64:64-i128:128-f80:128-n8:16:32:64-S128"
target triple = "x86_64-pc-linux-gnu"

%struct._Py_tss_t = type { i32, i32 }

; Function Attrs: nounwind uwtable
define dso_local ptr @PyThread_tss_alloc() #0 {
  %1 = alloca ptr, align 8
  %2 = alloca ptr, align 8
  %3 = alloca i32, align 4
  call void @llvm.lifetime.start.p0(i64 8, ptr %2) #11
  %4 = call ptr @PyMem_RawMalloc(i64 noundef 8)
  store ptr %4, ptr %2, align 8, !tbaa !192
  %5 = load ptr, ptr %2, align 8, !tbaa !192
  %6 = icmp eq ptr %5, null
  br i1 %6, label %7, label %8

7:                                                ; preds = %0
  store ptr null, ptr %1, align 8
  store i32 1, ptr %3, align 4
  br label %12

8:                                                ; preds = %0
  %9 = load ptr, ptr %2, align 8, !tbaa !192
  %10 = getelementptr inbounds nuw %struct._Py_tss_t, ptr %9, i32 0, i32 0
  store i32 0, ptr %10, align 4, !tbaa !194
  %11 = load ptr, ptr %2, align 8, !tbaa !192
  store ptr %11, ptr %1, align 8
  store i32 1, ptr %3, align 4
  br label %12

12:                                               ; preds = %8, %7
  call void @llvm.lifetime.end.p0(i64 8, ptr %2) #11
  %13 = load ptr, ptr %1, align 8
  ret ptr %13
}