; Function Attrs: nounwind uwtable
define dso_local ptr @PyThread_tss_alloc() local_unnamed_addr #0 {
  %1 = tail call ptr @PyMem_RawMalloc(i64 noundef 8) #13
  %2 = icmp eq ptr %1, null
  br i1 %2, label %4, label %3

3:                                                ; preds = %0
  store i32 0, ptr %1, align 4, !tbaa !186
  br label %4

4:                                                ; preds = %0, %3
  ret ptr %1
}